target datalayout = "e-m:e-p270:32:32-p271:32:32-p272:64:64-i64:64-i128:128-f80:128-n8:16:32:64-S128"
target triple = "x86_64-pc-linux-gnu"

%struct.nstime_t = type { i64, i32 }
%struct._packet_info = type { ptr, ptr, i32, i32, %struct.nstime_t, %struct.nstime_t, %struct.nstime_t, i8, ptr, ptr, ptr, ptr, %struct._address, %struct._address, %struct._address, %struct._address, %struct._address, %struct._address, i32, ptr, i8, [3 x i8], %struct.anon, i32, i32, i32, i32, ptr, i8, ptr, ptr, i16, i16, i32, i32, i16, i32, i32, ptr, ptr, ptr, i8, i8, i16, i16, i16, i32, i16, i16, ptr, ptr, ptr, ptr, ptr, i32, i32 }
%struct._address = type { i32, i32, ptr, ptr }
%struct.anon = type { i8, [3 x i8] }

@.str.40 = private unnamed_addr constant [5 x i8] c": %s\00", align 1
@hf_reload_ipaddressport = internal global i32 0, align 4
@hf_reload_ipaddressport_type = internal global i32 0, align 4
@hf_reload_ipv4addrport = internal global i32 0, align 4
@hf_reload_ipv4addr = internal global i32 0, align 4
@hf_reload_ipv6addrport = internal global i32 0, align 4
@hf_reload_ipv6addr = internal global i32 0, align 4
@hf_reload_port = internal global i32 0, align 4
@hf_reload_length_uint8 = internal global i32 0, align 4
@ett_reload_ipaddressport = internal global i32 0, align 4
@ett_reload_ipv4addrport = internal global i32 0, align 4
@ett_reload_ipv6addrport = internal global i32 0, align 4
@.str.666 = private unnamed_addr constant [17 x i8] c" (IpAddressPort)\00", align 1
@.str.667 = private unnamed_addr constant [13 x i8] c"Unknown Type\00", align 1
@.str.668 = private unnamed_addr constant [9 x i8] c" (%s:%d)\00", align 1
@.str.669 = private unnamed_addr constant [8 x i8] c": %s:%d\00", align 1

; Function Attrs: null_pointer_is_valid sspstrong uwtable
define internal i32 @dissect_ipaddressport(i32 noundef %0, ptr noundef %1, ptr noundef %2, ptr noundef %3, i16 noundef zeroext %4) #0 {
  %6 = alloca i32, align 4
  %7 = alloca ptr, align 8
  %8 = alloca ptr, align 8
  %9 = alloca ptr, align 8
  %10 = alloca i16, align 2
  %11 = alloca ptr, align 8
  %12 = alloca ptr, align 8
  %13 = alloca i8, align 1
  %14 = alloca i8, align 1
  %15 = alloca i32, align 4
  %16 = alloca ptr, align 8
  %17 = alloca ptr, align 8
  %18 = alloca ptr, align 8
  %19 = alloca ptr, align 8
  store i32 %0, ptr %6, align 4
  store ptr %1, ptr %7, align 8
  store ptr %2, ptr %8, align 8
  store ptr %3, ptr %9, align 8
  store i16 %4, ptr %10, align 2
  call void @llvm.lifetime.start.p0(i64 8, ptr %11) #8
  call void @llvm.lifetime.start.p0(i64 8, ptr %12) #8
  call void @llvm.lifetime.start.p0(i64 1, ptr %13) #8
  call void @llvm.lifetime.start.p0(i64 1, ptr %14) #8
  call void @llvm.lifetime.start.p0(i64 4, ptr %15) #8
  %20 = load i32, ptr @hf_reload_ipaddressport, align 4
  store i32 %20, ptr %15, align 4
  %21 = load i32, ptr %6, align 4
  %22 = icmp sge i32 %21, 0
  br i1 %22, label %23, label %25

23:                                               ; preds = %5
  %24 = load i32, ptr %6, align 4
  store i32 %24, ptr %15, align 4
  br label %25

25:                                               ; preds = %23, %5
  %26 = load ptr, ptr %7, align 8
  %27 = load i16, ptr %10, align 2
  %28 = zext i16 %27 to i32
  %29 = add i32 %28, 1
  %30 = call zeroext i8 @tvb_get_uint8(ptr noundef %26, i32 noundef %29)
  store i8 %30, ptr %14, align 1
  %31 = load ptr, ptr %9, align 8
  %32 = load i32, ptr %15, align 4
  %33 = load ptr, ptr %7, align 8
  %34 = load i16, ptr %10, align 2
  %35 = zext i16 %34 to i32
  %36 = load i8, ptr %14, align 1
  %37 = zext i8 %36 to i32
  %38 = add i32 %37, 2
  %39 = call ptr @proto_tree_add_item(ptr noundef %31, i32 noundef %32, ptr noundef %33, i32 noundef %35, i32 noundef %38, i32 noundef 0)
  store ptr %39, ptr %11, align 8
  %40 = load i32, ptr %15, align 4
  %41 = load i32, ptr %6, align 4
  %42 = icmp eq i32 %40, %41
  br i1 %42, label %43, label %45

43:                                               ; preds = %25
  %44 = load ptr, ptr %11, align 8
  call void (ptr, ptr, ...) @proto_item_append_text(ptr noundef %44, ptr noundef @.str.666)
  br label %45

45:                                               ; preds = %43, %25
  %46 = load ptr, ptr %7, align 8
  %47 = load i16, ptr %10, align 2
  %48 = zext i16 %47 to i32
  %49 = call zeroext i8 @tvb_get_uint8(ptr noundef %46, i32 noundef %48)
  store i8 %49, ptr %13, align 1
  %50 = load ptr, ptr %11, align 8
  %51 = load i8, ptr %13, align 1
  %52 = zext i8 %51 to i32
  %53 = call ptr @val_to_str_const(i32 noundef %52, ptr noundef @ipaddressporttypes, ptr noundef @.str.667)
  call void (ptr, ptr, ...) @proto_item_append_text(ptr noundef %50, ptr noundef @.str.40, ptr noundef %53)
  %54 = load i8, ptr %13, align 1
  %55 = zext i8 %54 to i32
  %56 = icmp eq i32 %55, 1
  br i1 %56, label %57, label %74

57:                                               ; preds = %45
  %58 = load ptr, ptr %11, align 8
  %59 = load ptr, ptr %8, align 8
  %60 = getelementptr inbounds nuw %struct._packet_info, ptr %59, i32 0, i32 51
  %61 = load ptr, ptr %60, align 8
  %62 = load ptr, ptr %7, align 8
  %63 = load i16, ptr %10, align 2
  %64 = zext i16 %63 to i32
  %65 = add i32 %64, 2
  %66 = call ptr @tvb_address_to_str(ptr noundef %61, ptr noundef %62, i32 noundef 2, i32 noundef %65)
  %67 = load ptr, ptr %7, align 8
  %68 = load i16, ptr %10, align 2
  %69 = zext i16 %68 to i32
  %70 = add i32 %69, 2
  %71 = add i32 %70, 4
  %72 = call zeroext i16 @tvb_get_ntohs(ptr noundef %67, i32 noundef %71)
  %73 = zext i16 %72 to i32
  call void (ptr, ptr, ...) @proto_item_append_text(ptr noundef %58, ptr noundef @.str.668, ptr noundef %66, i32 noundef %73)
  br label %96

74:                                               ; preds = %45
  %75 = load i8, ptr %13, align 1
  %76 = zext i8 %75 to i32
  %77 = icmp eq i32 %76, 2
  br i1 %77, label %78, label %95

78:                                               ; preds = %74
  %79 = load ptr, ptr %11, align 8
  %80 = load ptr, ptr %8, align 8
  %81 = getelementptr inbounds nuw %struct._packet_info, ptr %80, i32 0, i32 51
  %82 = load ptr, ptr %81, align 8
  %83 = load ptr, ptr %7, align 8
  %84 = load i16, ptr %10, align 2
  %85 = zext i16 %84 to i32
  %86 = add i32 %85, 2
  %87 = call ptr @tvb_address_to_str(ptr noundef %82, ptr noundef %83, i32 noundef 3, i32 noundef %86)
  %88 = load ptr, ptr %7, align 8
  %89 = load i16, ptr %10, align 2
  %90 = zext i16 %89 to i32
  %91 = add i32 %90, 2
  %92 = add i32 %91, 16
  %93 = call zeroext i16 @tvb_get_ntohs(ptr noundef %88, i32 noundef %92)
  %94 = zext i16 %93 to i32
  call void (ptr, ptr, ...) @proto_item_append_text(ptr noundef %79, ptr noundef @.str.668, ptr noundef %87, i32 noundef %94)
  br label %95

95:                                               ; preds = %78, %74
  br label %96

96:                                               ; preds = %95, %57
  %97 = load ptr, ptr %11, align 8
  %98 = load i32, ptr @ett_reload_ipaddressport, align 4
  %99 = call ptr @proto_item_add_subtree(ptr noundef %97, i32 noundef %98)
  store ptr %99, ptr %12, align 8
  %100 = load ptr, ptr %12, align 8
  %101 = load i32, ptr @hf_reload_ipaddressport_type, align 4
  %102 = load ptr, ptr %7, align 8
  %103 = load i16, ptr %10, align 2
  %104 = zext i16 %103 to i32
  %105 = call ptr @proto_tree_add_item(ptr noundef %100, i32 noundef %101, ptr noundef %102, i32 noundef %104, i32 noundef 1, i32 noundef 0)
  %106 = load i16, ptr %10, align 2
  %107 = zext i16 %106 to i32
  %108 = add i32 %107, 1
  %109 = trunc i32 %108 to i16
  store i16 %109, ptr %10, align 2
  %110 = load ptr, ptr %12, align 8
  %111 = load i32, ptr @hf_reload_length_uint8, align 4
  %112 = load ptr, ptr %7, align 8
  %113 = load i16, ptr %10, align 2
  %114 = zext i16 %113 to i32
  %115 = load i8, ptr %14, align 1
  %116 = zext i8 %115 to i32
  %117 = call ptr @proto_tree_add_uint(ptr noundef %110, i32 noundef %111, ptr noundef %112, i32 noundef %114, i32 noundef 1, i32 noundef %116)
  %118 = load i16, ptr %10, align 2
  %119 = zext i16 %118 to i32
  %120 = add i32 %119, 1
  %121 = trunc i32 %120 to i16
  store i16 %121, ptr %10, align 2
  %122 = load i8, ptr %13, align 1
  %123 = zext i8 %122 to i32
  switch i32 %123, label %198 [
    i32 1, label %124
    i32 2, label %161
  ]

124:                                              ; preds = %96
  call void @llvm.lifetime.start.p0(i64 8, ptr %16) #8
  call void @llvm.lifetime.start.p0(i64 8, ptr %17) #8
  %125 = load ptr, ptr %12, align 8
  %126 = load i32, ptr @hf_reload_ipv4addrport, align 4
  %127 = load ptr, ptr %7, align 8
  %128 = load i16, ptr %10, align 2
  %129 = zext i16 %128 to i32
  %130 = call ptr @proto_tree_add_item(ptr noundef %125, i32 noundef %126, ptr noundef %127, i32 noundef %129, i32 noundef 6, i32 noundef 0)
  store ptr %130, ptr %16, align 8
  %131 = load ptr, ptr %16, align 8
  %132 = load ptr, ptr %8, align 8
  %133 = getelementptr inbounds nuw %struct._packet_info, ptr %132, i32 0, i32 51
  %134 = load ptr, ptr %133, align 8
  %135 = load ptr, ptr %7, align 8
  %136 = load i16, ptr %10, align 2
  %137 = zext i16 %136 to i32
  %138 = call ptr @tvb_address_to_str(ptr noundef %134, ptr noundef %135, i32 noundef 2, i32 noundef %137)
  %139 = load ptr, ptr %7, align 8
  %140 = load i16, ptr %10, align 2
  %141 = zext i16 %140 to i32
  %142 = add i32 %141, 4
  %143 = call zeroext i16 @tvb_get_ntohs(ptr noundef %139, i32 noundef %142)
  %144 = zext i16 %143 to i32
  call void (ptr, ptr, ...) @proto_item_append_text(ptr noundef %131, ptr noundef @.str.669, ptr noundef %138, i32 noundef %144)
  %145 = load ptr, ptr %16, align 8
  %146 = load i32, ptr @ett_reload_ipv4addrport, align 4
  %147 = call ptr @proto_item_add_subtree(ptr noundef %145, i32 noundef %146)
  store ptr %147, ptr %17, align 8
  %148 = load ptr, ptr %17, align 8
  %149 = load i32, ptr @hf_reload_ipv4addr, align 4
  %150 = load ptr, ptr %7, align 8
  %151 = load i16, ptr %10, align 2
  %152 = zext i16 %151 to i32
  %153 = call ptr @proto_tree_add_item(ptr noundef %148, i32 noundef %149, ptr noundef %150, i32 noundef %152, i32 noundef 4, i32 noundef 0)
  %154 = load ptr, ptr %17, align 8
  %155 = load i32, ptr @hf_reload_port, align 4
  %156 = load ptr, ptr %7, align 8
  %157 = load i16, ptr %10, align 2
  %158 = zext i16 %157 to i32
  %159 = add i32 %158, 4
  %160 = call ptr @proto_tree_add_item(ptr noundef %154, i32 noundef %155, ptr noundef %156, i32 noundef %159, i32 noundef 2, i32 noundef 0)
  call void @llvm.lifetime.end.p0(i64 8, ptr %17) #8
  call void @llvm.lifetime.end.p0(i64 8, ptr %16) #8
  br label %199

161:                                              ; preds = %96
  call void @llvm.lifetime.start.p0(i64 8, ptr %18) #8
  call void @llvm.lifetime.start.p0(i64 8, ptr %19) #8
  %162 = load ptr, ptr %12, align 8
  %163 = load i32, ptr @hf_reload_ipv6addrport, align 4
  %164 = load ptr, ptr %7, align 8
  %165 = load i16, ptr %10, align 2
  %166 = zext i16 %165 to i32
  %167 = call ptr @proto_tree_add_item(ptr noundef %162, i32 noundef %163, ptr noundef %164, i32 noundef %166, i32 noundef 6, i32 noundef 0)
  store ptr %167, ptr %18, align 8
  %168 = load ptr, ptr %18, align 8
  %169 = load ptr, ptr %8, align 8
  %170 = getelementptr inbounds nuw %struct._packet_info, ptr %169, i32 0, i32 51
  %171 = load ptr, ptr %170, align 8
  %172 = load ptr, ptr %7, align 8
  %173 = load i16, ptr %10, align 2
  %174 = zext i16 %173 to i32
  %175 = call ptr @tvb_address_to_str(ptr noundef %171, ptr noundef %172, i32 noundef 3, i32 noundef %174)
  %176 = load ptr, ptr %7, align 8
  %177 = load i16, ptr %10, align 2
  %178 = zext i16 %177 to i32
  %179 = add i32 %178, 16
  %180 = call zeroext i16 @tvb_get_ntohs(ptr noundef %176, i32 noundef %179)
  %181 = zext i16 %180 to i32
  call void (ptr, ptr, ...) @proto_item_append_text(ptr noundef %168, ptr noundef @.str.669, ptr noundef %175, i32 noundef %181)
  %182 = load ptr, ptr %18, align 8
  %183 = load i32, ptr @ett_reload_ipv6addrport, align 4
  %184 = call ptr @proto_item_add_subtree(ptr noundef %182, i32 noundef %183)
  store ptr %184, ptr %19, align 8
  %185 = load ptr, ptr %19, align 8
  %186 = load i32, ptr @hf_reload_ipv6addr, align 4
  %187 = load ptr, ptr %7, align 8
  %188 = load i16, ptr %10, align 2
  %189 = zext i16 %188 to i32
  %190 = call ptr @proto_tree_add_item(ptr noundef %185, i32 noundef %186, ptr noundef %187, i32 noundef %189, i32 noundef 16, i32 noundef 0)
  %191 = load ptr, ptr %19, align 8
  %192 = load i32, ptr @hf_reload_port, align 4
  %193 = load ptr, ptr %7, align 8
  %194 = load i16, ptr %10, align 2
  %195 = zext i16 %194 to i32
  %196 = add i32 %195, 16
  %197 = call ptr @proto_tree_add_item(ptr noundef %191, i32 noundef %192, ptr noundef %193, i32 noundef %196, i32 noundef 2, i32 noundef 0)
  call void @llvm.lifetime.end.p0(i64 8, ptr %19) #8
  call void @llvm.lifetime.end.p0(i64 8, ptr %18) #8
  br label %199

198:                                              ; preds = %96
  br label %199

199:                                              ; preds = %198, %161, %124
  %200 = load i8, ptr %14, align 1
  %201 = zext i8 %200 to i32
  %202 = add i32 2, %201
  call void @llvm.lifetime.end.p0(i64 4, ptr %15) #8
  call void @llvm.lifetime.end.p0(i64 1, ptr %14) #8
  call void @llvm.lifetime.end.p0(i64 1, ptr %13) #8
  call void @llvm.lifetime.end.p0(i64 8, ptr %12) #8
  call void @llvm.lifetime.end.p0(i64 8, ptr %11) #8
  ret i32 %202
}