; Function Attrs: null_pointer_is_valid sspstrong uwtable
define internal fastcc range(i32 2, 258) i32 @dissect_ipaddressport(i32 noundef %0, ptr noundef %1, ptr noundef readonly captures(none) %2, ptr noundef %3, i16 noundef zeroext %4) unnamed_addr #0 {
  %6 = load i32, ptr @hf_reload_ipaddressport, align 4
  %7 = icmp slt i32 %0, 0
  %spec.select = select i1 %7, i32 %6, i32 %0
  %8 = zext i16 %4 to i32
  %9 = add nuw nsw i32 %8, 1
  %10 = tail call zeroext i8 @tvb_get_uint8(ptr noundef %1, i32 noundef %9)
  %11 = zext i8 %10 to i32
  %12 = add nuw nsw i32 %11, 2
  %13 = tail call ptr @proto_tree_add_item(ptr noundef %3, i32 noundef %spec.select, ptr noundef %1, i32 noundef %8, i32 noundef %12, i32 noundef 0)
  %14 = icmp eq i32 %spec.select, %0
  br i1 %14, label %15, label %16

15:                                               ; preds = %5
  tail call void (ptr, ptr, ...) @proto_item_append_text(ptr noundef %13, ptr noundef nonnull @.str.666)
  br label %16

16:                                               ; preds = %15, %5
  %17 = tail call zeroext i8 @tvb_get_uint8(ptr noundef %1, i32 noundef %8)
  %18 = zext i8 %17 to i32
  %19 = tail call ptr @val_to_str_const(i32 noundef %18, ptr noundef nonnull @ipaddressporttypes, ptr noundef nonnull @.str.667)
  tail call void (ptr, ptr, ...) @proto_item_append_text(ptr noundef %13, ptr noundef nonnull @.str.40, ptr noundef %19)
  switch i8 %17, label %28 [
    i8 1, label %.sink.split
    i8 2, label %20
  ]

20:                                               ; preds = %16
  br label %.sink.split

.sink.split:                                      ; preds = %16, %20
  %.sink80 = phi i32 [ 3, %20 ], [ 2, %16 ]
  %.sink78 = phi i32 [ 18, %20 ], [ 6, %16 ]
  %21 = getelementptr inbounds nuw i8, ptr %2, i64 408
  %22 = load ptr, ptr %21, align 8
  %23 = add nuw nsw i32 %8, 2
  %24 = tail call ptr @tvb_address_to_str(ptr noundef %22, ptr noundef %1, i32 noundef %.sink80, i32 noundef %23)
  %25 = add nuw nsw i32 %.sink78, %8
  %26 = tail call zeroext i16 @tvb_get_ntohs(ptr noundef %1, i32 noundef %25)
  %27 = zext i16 %26 to i32
  tail call void (ptr, ptr, ...) @proto_item_append_text(ptr noundef %13, ptr noundef nonnull @.str.668, ptr noundef %24, i32 noundef %27)
  br label %28

28:                                               ; preds = %.sink.split, %16
  %29 = load i32, ptr @ett_reload_ipaddressport, align 4
  %30 = tail call ptr @proto_item_add_subtree(ptr noundef %13, i32 noundef %29)
  %31 = load i32, ptr @hf_reload_ipaddressport_type, align 4
  %32 = tail call ptr @proto_tree_add_item(ptr noundef %30, i32 noundef %31, ptr noundef %1, i32 noundef %8, i32 noundef 1, i32 noundef 0)
  %33 = load i32, ptr @hf_reload_length_uint8, align 4
  %34 = and i32 %9, 65535
  %35 = tail call ptr @proto_tree_add_uint(ptr noundef %30, i32 noundef %33, ptr noundef %1, i32 noundef %34, i32 noundef 1, i32 noundef %11)
  %36 = add i16 %4, 2
  switch i8 %17, label %53 [
    i8 1, label %.sink.split82
    i8 2, label %37
  ]

37:                                               ; preds = %28
  br label %.sink.split82

.sink.split82:                                    ; preds = %28, %37
  %hf_reload_ipv6addrport.sink = phi ptr [ @hf_reload_ipv6addrport, %37 ], [ @hf_reload_ipv4addrport, %28 ]
  %.sink98 = phi i32 [ 3, %37 ], [ 2, %28 ]
  %.sink96 = phi i32 [ 16, %37 ], [ 4, %28 ]
  %ett_reload_ipv6addrport.sink = phi ptr [ @ett_reload_ipv6addrport, %37 ], [ @ett_reload_ipv4addrport, %28 ]
  %hf_reload_ipv6addr.sink = phi ptr [ @hf_reload_ipv6addr, %37 ], [ @hf_reload_ipv4addr, %28 ]
  %38 = load i32, ptr %hf_reload_ipv6addrport.sink, align 4
  %39 = zext i16 %36 to i32
  %40 = tail call ptr @proto_tree_add_item(ptr noundef %30, i32 noundef %38, ptr noundef %1, i32 noundef %39, i32 noundef 6, i32 noundef 0)
  %41 = getelementptr inbounds nuw i8, ptr %2, i64 408
  %42 = load ptr, ptr %41, align 8
  %43 = tail call ptr @tvb_address_to_str(ptr noundef %42, ptr noundef %1, i32 noundef %.sink98, i32 noundef %39)
  %44 = add nuw nsw i32 %.sink96, %39
  %45 = tail call zeroext i16 @tvb_get_ntohs(ptr noundef %1, i32 noundef %44)
  %46 = zext i16 %45 to i32
  tail call void (ptr, ptr, ...) @proto_item_append_text(ptr noundef %40, ptr noundef nonnull @.str.669, ptr noundef %43, i32 noundef %46)
  %47 = load i32, ptr %ett_reload_ipv6addrport.sink, align 4
  %48 = tail call ptr @proto_item_add_subtree(ptr noundef %40, i32 noundef %47)
  %49 = load i32, ptr %hf_reload_ipv6addr.sink, align 4
  %50 = tail call ptr @proto_tree_add_item(ptr noundef %48, i32 noundef %49, ptr noundef %1, i32 noundef %39, i32 noundef %.sink96, i32 noundef 0)
  %51 = load i32, ptr @hf_reload_port, align 4
  %52 = tail call ptr @proto_tree_add_item(ptr noundef %48, i32 noundef %51, ptr noundef %1, i32 noundef %44, i32 noundef 2, i32 noundef 0)
  br label %53

53:                                               ; preds = %.sink.split82, %28
  ret i32 %12
}